---
triple:          'arm64-apple-darwin'
binary-path:     '/Users/kylebeloin/Documents/projects/aoc/2024/day_06/main'
relocations:
  - { offsetInCU: 0x43F2, offset: 0x43F2, size: 0x8, addend: 0x0, symName: __ZNSt3__124__put_character_sequenceB7v160006IcNS_11char_traitsIcEEEERNS_13basic_ostreamIT_T0_EES7_PKS4_m, symObjAddr: 0x1D50, symBinAddr: 0x100004AB0, symSize: 0x1F4 }
  - { offsetInCU: 0x6C27, offset: 0x6C27, size: 0x8, addend: 0x0, symName: __ZNSt3__14endlB7v160006IcNS_11char_traitsIcEEEERNS_13basic_ostreamIT_T0_EES7_, symObjAddr: 0x488, symBinAddr: 0x1000031E8, symSize: 0x58 }
  - { offsetInCU: 0x6C67, offset: 0x6C67, size: 0x8, addend: 0x0, symName: __ZNSt3__1lsB7v160006INS_11char_traitsIcEEEERNS_13basic_ostreamIcT_EES6_PKc, symObjAddr: 0x4E0, symBinAddr: 0x100003240, symSize: 0x48 }
  - { offsetInCU: 0x73AD, offset: 0x73AD, size: 0x8, addend: 0x0, symName: __ZNSt3__17getlineB7v160006IcNS_11char_traitsIcEENS_9allocatorIcEEEERNS_13basic_istreamIT_T0_EES9_RNS_12basic_stringIS6_S7_T1_EE, symObjAddr: 0xEDC, symBinAddr: 0x100003C3C, symSize: 0x5C }
  - { offsetInCU: 0x7410, offset: 0x7410, size: 0x8, addend: 0x0, symName: __ZNSt3__119__debug_db_insert_cB7v160006INS_6vectorI8PositionNS_9allocatorIS2_EEEEEEvPT_, symObjAddr: 0x1304, symBinAddr: 0x100004064, symSize: 0x10 }
  - { offsetInCU: 0x7441, offset: 0x7441, size: 0x8, addend: 0x0, symName: __ZNSt3__118__debug_db_erase_cB7v160006INS_6vectorI8PositionNS_9allocatorIS2_EEEEEEvPT_, symObjAddr: 0x1688, symBinAddr: 0x1000043E8, symSize: 0x10 }
  - { offsetInCU: 0x7472, offset: 0x7472, size: 0x8, addend: 0x0, symName: __ZNSt3__112__to_addressB7v160006I8PositionEEPT_S3_, symObjAddr: 0x17A4, symBinAddr: 0x100004504, symSize: 0x14 }
  - { offsetInCU: 0x74A7, offset: 0x74A7, size: 0x8, addend: 0x0, symName: __ZNSt3__130__libcpp_is_constant_evaluatedB7v160006Ev, symObjAddr: 0x1908, symBinAddr: 0x100004668, symSize: 0xC }
  - { offsetInCU: 0x74C4, offset: 0x74C4, size: 0x8, addend: 0x0, symName: __ZNSt3__119__libcpp_deallocateB7v160006EPvmm, symObjAddr: 0x1914, symBinAddr: 0x100004674, symSize: 0x30 }
  - { offsetInCU: 0x750C, offset: 0x750C, size: 0x8, addend: 0x0, symName: __ZNSt3__127__do_deallocate_handle_sizeB7v160006IJEEEvPvmDpT_, symObjAddr: 0x1944, symBinAddr: 0x1000046A4, symSize: 0x28 }
  - { offsetInCU: 0x754A, offset: 0x754A, size: 0x8, addend: 0x0, symName: __ZNSt3__124__libcpp_operator_deleteB7v160006IJPvEEEvDpT_, symObjAddr: 0x196C, symBinAddr: 0x1000046CC, symSize: 0x24 }
  - { offsetInCU: 0x757F, offset: 0x757F, size: 0x8, addend: 0x0, symName: __ZNSt3__19use_facetB7v160006INS_5ctypeIcEEEERKT_RKNS_6localeE, symObjAddr: 0x1CEC, symBinAddr: 0x100004A4C, symSize: 0x2C }
  - { offsetInCU: 0x7A4E, offset: 0x7A4E, size: 0x8, addend: 0x0, symName: __ZNSt3__116__pad_and_outputB7v160006IcNS_11char_traitsIcEEEENS_19ostreambuf_iteratorIT_T0_EES6_PKS4_S8_S8_RNS_8ios_baseES4_, symObjAddr: 0x1FA8, symBinAddr: 0x100004D08, symSize: 0x248 }
  - { offsetInCU: 0x7B1D, offset: 0x7B1D, size: 0x8, addend: 0x0, symName: __ZNSt3__119__debug_db_insert_cB7v160006INS_12basic_stringIcNS_11char_traitsIcEENS_9allocatorIcEEEEEEvPT_, symObjAddr: 0x2438, symBinAddr: 0x100005198, symSize: 0x10 }
  - { offsetInCU: 0x7B4E, offset: 0x7B4E, size: 0x8, addend: 0x0, symName: __ZNSt3__112__to_addressB7v160006IKcEEPT_S3_, symObjAddr: 0x2504, symBinAddr: 0x100005264, symSize: 0x14 }
  - { offsetInCU: 0x7BB6, offset: 0x7BB6, size: 0x8, addend: 0x0, symName: __ZNSt3__118__constexpr_strlenB7v160006EPKc, symObjAddr: 0x2748, symBinAddr: 0x1000054A8, symSize: 0x24 }
  - { offsetInCU: 0x7BE2, offset: 0x7BE2, size: 0x8, addend: 0x0, symName: __ZNSt3__120__throw_out_of_rangeB7v160006EPKc, symObjAddr: 0x2788, symBinAddr: 0x1000054E8, symSize: 0x64 }
  - { offsetInCU: 0x7C0C, offset: 0x7C0C, size: 0x8, addend: 0x0, symName: __ZNSt3__17getlineB7v160006IcNS_11char_traitsIcEENS_9allocatorIcEEEERNS_13basic_istreamIT_T0_EES9_RNS_12basic_stringIS6_S7_T1_EES6_, symObjAddr: 0x2930, symBinAddr: 0x100005690, symSize: 0x238 }
  - { offsetInCU: 0x7CCA, offset: 0x7CCA, size: 0x8, addend: 0x0, symName: __ZNSt3__125__debug_db_invalidate_allB7v160006INS_12basic_stringIcNS_11char_traitsIcEENS_9allocatorIcEEEEEEvPT_, symObjAddr: 0x2E60, symBinAddr: 0x100005BC0, symSize: 0x10 }
  - { offsetInCU: 0x7F30, offset: 0x7F30, size: 0x8, addend: 0x0, symName: __ZNSt3__13maxB7v160006ImEERKT_S3_S3_, symObjAddr: 0x3788, symBinAddr: 0x1000064E8, symSize: 0x2C }
  - { offsetInCU: 0x7F73, offset: 0x7F73, size: 0x8, addend: 0x0, symName: __ZNSt3__13minB7v160006ImEERKT_S3_S3_, symObjAddr: 0x37B4, symBinAddr: 0x100006514, symSize: 0x2C }
  - { offsetInCU: 0x81B7, offset: 0x81B7, size: 0x8, addend: 0x0, symName: __ZNSt3__13minB7v160006ImNS_6__lessImmEEEERKT_S5_S5_T0_, symObjAddr: 0x3840, symBinAddr: 0x1000065A0, symSize: 0x54 }
  - { offsetInCU: 0x824C, offset: 0x824C, size: 0x8, addend: 0x0, symName: __ZNSt3__120__throw_length_errorB7v160006EPKc, symObjAddr: 0x391C, symBinAddr: 0x10000667C, symSize: 0x64 }
  - { offsetInCU: 0x8274, offset: 0x8274, size: 0x8, addend: 0x0, symName: __ZNSt3__13maxB7v160006ImNS_6__lessImmEEEERKT_S5_S5_T0_, symObjAddr: 0x3A00, symBinAddr: 0x100006760, symSize: 0x54 }
  - { offsetInCU: 0x82CE, offset: 0x82CE, size: 0x8, addend: 0x0, symName: __ZNSt3__119__allocate_at_leastB7v160006INS_9allocatorI8PositionEEEENS_19__allocation_resultINS_16allocator_traitsIT_E7pointerEEERS6_m, symObjAddr: 0x3B64, symBinAddr: 0x1000068C4, symSize: 0x40 }
  - { offsetInCU: 0x8311, offset: 0x8311, size: 0x8, addend: 0x0, symName: __ZNSt3__117__libcpp_allocateB7v160006Emm, symObjAddr: 0x3D14, symBinAddr: 0x100006A74, symSize: 0x28 }
  - { offsetInCU: 0x834E, offset: 0x834E, size: 0x8, addend: 0x0, symName: __ZNSt3__121__libcpp_operator_newB7v160006IJmEEEPvDpT_, symObjAddr: 0x3D3C, symBinAddr: 0x100006A9C, symSize: 0x24 }
  - { offsetInCU: 0x8387, offset: 0x8387, size: 0x8, addend: 0x0, symName: __ZNSt3__142__uninitialized_allocator_move_if_noexceptB7v160006INS_9allocatorI8PositionEENS_16reverse_iteratorIPS2_EES6_S2_vEET1_RT_T0_SA_S7_, symObjAddr: 0x3DC4, symBinAddr: 0x100006B24, symSize: 0xE8 }
  - { offsetInCU: 0x8404, offset: 0x8404, size: 0x8, addend: 0x0, symName: __ZNSt3__14swapB7v160006IP8PositionEEvRT_S4_, symObjAddr: 0x3EF8, symBinAddr: 0x100006C58, symSize: 0x3C }
  - { offsetInCU: 0x8455, offset: 0x8455, size: 0x8, addend: 0x0, symName: __ZNSt3__125__debug_db_invalidate_allB7v160006INS_6vectorI8PositionNS_9allocatorIS2_EEEEEEvPT_, symObjAddr: 0x3FE0, symBinAddr: 0x100006D40, symSize: 0x10 }
  - { offsetInCU: 0x8486, offset: 0x8486, size: 0x8, addend: 0x0, symName: __ZNSt3__1neB7v160006IP8PositionS2_EEbRKNS_16reverse_iteratorIT_EERKNS3_IT0_EE, symObjAddr: 0x3FF0, symBinAddr: 0x100006D50, symSize: 0x48 }
  - { offsetInCU: 0x84F7, offset: 0x84F7, size: 0x8, addend: 0x0, symName: __ZNSt3__114__construct_atB7v160006I8PositionJS1_EPS1_EEPT_S4_DpOT0_, symObjAddr: 0x4038, symBinAddr: 0x100006D98, symSize: 0x2C }
  - { offsetInCU: 0x8567, offset: 0x8567, size: 0x8, addend: 0x0, symName: __ZNSt3__112__to_addressB7v160006INS_16reverse_iteratorIP8PositionEEvEENS_5decayIDTclsr19__to_address_helperIT_EE6__callclsr3stdE7declvalIRKS6_EEEEE4typeES8_, symObjAddr: 0x4064, symBinAddr: 0x100006DC4, symSize: 0x24 }
  - { offsetInCU: 0x859D, offset: 0x859D, size: 0x8, addend: 0x0, symName: __ZNSt3__14moveB7v160006INS_16reverse_iteratorIP8PositionEES4_EET0_T_S6_S5_, symObjAddr: 0x40D0, symBinAddr: 0x100006E30, symSize: 0x78 }
  - { offsetInCU: 0x8620, offset: 0x8620, size: 0x8, addend: 0x0, symName: __ZNSt3__16__moveB7v160006INS_17_ClassicAlgPolicyENS_16reverse_iteratorIP8PositionEES5_S5_EENS_4pairIT0_T2_EES7_T1_S8_, symObjAddr: 0x41B8, symBinAddr: 0x100006F18, symSize: 0x64 }
  - { offsetInCU: 0x868C, offset: 0x868C, size: 0x8, addend: 0x0, symName: __ZNSt3__123__dispatch_copy_or_moveB7v160006INS_17_ClassicAlgPolicyENS_11__move_loopIS1_EENS_14__move_trivialENS_16reverse_iteratorIP8PositionEES8_S8_EENS_4pairIT2_T4_EESA_T3_SB_, symObjAddr: 0x421C, symBinAddr: 0x100006F7C, symSize: 0x7C }
  - { offsetInCU: 0x870A, offset: 0x870A, size: 0x8, addend: 0x0, symName: __ZNSt3__121__unwrap_and_dispatchB7v160006INS_10__overloadINS_11__move_loopINS_17_ClassicAlgPolicyEEENS_14__move_trivialEEENS_16reverse_iteratorIP8PositionEESA_SA_Li0EEENS_4pairIT0_T2_EESC_T1_SD_, symObjAddr: 0x4298, symBinAddr: 0x100006FF8, symSize: 0x12C }
  - { offsetInCU: 0x879A, offset: 0x879A, size: 0x8, addend: 0x0, symName: __ZNSt3__114__unwrap_rangeB7v160006INS_16reverse_iteratorIP8PositionEES4_EENS_4pairIT0_S6_EET_S8_, symObjAddr: 0x43C4, symBinAddr: 0x100007124, symSize: 0x84 }
  - { offsetInCU: 0x88EE, offset: 0x88EE, size: 0x8, addend: 0x0, symName: __ZNSt3__113__unwrap_iterB7v160006INS_16reverse_iteratorIP8PositionEENS_18__unwrap_iter_implIS4_Lb0EEELi0EEEDTclsrT0_8__unwrapclsr3stdE7declvalIT_EEEES8_, symObjAddr: 0x44F0, symBinAddr: 0x100007250, symSize: 0x44 }
  - { offsetInCU: 0x8932, offset: 0x8932, size: 0x8, addend: 0x0, symName: __ZNSt3__19make_pairB7v160006INS_16reverse_iteratorIP8PositionEES4_EENS_4pairINS_18__unwrap_ref_decayIT_E4typeENS6_IT0_E4typeEEEOS7_OSA_, symObjAddr: 0x4534, symBinAddr: 0x100007294, symSize: 0x38 }
  - { offsetInCU: 0x8981, offset: 0x8981, size: 0x8, addend: 0x0, symName: __ZNSt3__114__rewrap_rangeB7v160006INS_16reverse_iteratorIP8PositionEES4_EET_S5_T0_, symObjAddr: 0x456C, symBinAddr: 0x1000072CC, symSize: 0x5C }
  - { offsetInCU: 0x89CD, offset: 0x89CD, size: 0x8, addend: 0x0, symName: __ZNSt3__113__rewrap_iterB7v160006INS_16reverse_iteratorIP8PositionEES4_NS_18__unwrap_iter_implIS4_Lb0EEEEET_S7_T0_, symObjAddr: 0x45C8, symBinAddr: 0x100007328, symSize: 0x88 }
  - { offsetInCU: 0x8D2C, offset: 0x8D2C, size: 0x8, addend: 0x0, symName: __ZSt28__throw_bad_array_new_lengthB7v160006v, symObjAddr: 0x3CE0, symBinAddr: 0x100006A40, symSize: 0x34 }
  - { offsetInCU: 0x933A, offset: 0x933A, size: 0x8, addend: 0x0, symName: __ZNSt3__16vectorI8PositionNS_9allocatorIS1_EEE26__swap_out_circular_bufferERNS_14__split_bufferIS1_RS3_EE, symObjAddr: 0x35B4, symBinAddr: 0x100006314, symSize: 0x118 }
  - { offsetInCU: 0xB579, offset: 0xB579, size: 0x8, addend: 0x0, symName: __Z9turnRightR5Guard, symObjAddr: 0x0, symBinAddr: 0x100002D60, symSize: 0xD0 }
  - { offsetInCU: 0xB5A2, offset: 0xB5A2, size: 0x8, addend: 0x0, symName: __Z4draw4Grid, symObjAddr: 0xD0, symBinAddr: 0x100002E30, symSize: 0x1C4 }
  - { offsetInCU: 0xB686, offset: 0xB686, size: 0x8, addend: 0x0, symName: __ZNSt3__114basic_ofstreamIcNS_11char_traitsIcEEEC1EPKcj, symObjAddr: 0x294, symBinAddr: 0x100002FF4, symSize: 0x17C }
  - { offsetInCU: 0xB6D0, offset: 0xB6D0, size: 0x8, addend: 0x0, symName: __ZNKSt3__16vectorI8PositionNS_9allocatorIS1_EEE4sizeB7v160006Ev, symObjAddr: 0x410, symBinAddr: 0x100003170, symSize: 0x28 }
  - { offsetInCU: 0xB6F6, offset: 0xB6F6, size: 0x8, addend: 0x0, symName: __ZNSt3__16vectorI8PositionNS_9allocatorIS1_EEEixB7v160006Em, symObjAddr: 0x438, symBinAddr: 0x100003198, symSize: 0x24 }
  - { offsetInCU: 0xB72D, offset: 0xB72D, size: 0x8, addend: 0x0, symName: __ZNSt3__113basic_ostreamIcNS_11char_traitsIcEEElsB7v160006EPFRS3_S4_E, symObjAddr: 0x45C, symBinAddr: 0x1000031BC, symSize: 0x2C }
  - { offsetInCU: 0xB761, offset: 0xB761, size: 0x8, addend: 0x0, symName: __ZNSt3__114basic_ofstreamIcNS_11char_traitsIcEEE5closeEv, symObjAddr: 0x528, symBinAddr: 0x100003288, symSize: 0x58 }
  - { offsetInCU: 0xB78E, offset: 0xB78E, size: 0x8, addend: 0x0, symName: __ZNSt3__114basic_ofstreamIcNS_11char_traitsIcEEED1Ev, symObjAddr: 0x580, symBinAddr: 0x1000032E0, symSize: 0x70 }
  - { offsetInCU: 0xB7BA, offset: 0xB7BA, size: 0x8, addend: 0x0, symName: __Z7getNextR5GuardR4Grid, symObjAddr: 0x5FC, symBinAddr: 0x10000335C, symSize: 0x258 }
  - { offsetInCU: 0xB869, offset: 0xB869, size: 0x8, addend: 0x0, symName: __ZNSt3__16vectorI8PositionNS_9allocatorIS1_EEE2atEm, symObjAddr: 0x854, symBinAddr: 0x1000035B4, symSize: 0x60 }
  - { offsetInCU: 0xB8A0, offset: 0xB8A0, size: 0x8, addend: 0x0, symName: _main, symObjAddr: 0x8B4, symBinAddr: 0x100003614, symSize: 0x420 }
  - { offsetInCU: 0xB9FA, offset: 0xB9FA, size: 0x8, addend: 0x0, symName: __ZNSt3__114basic_ifstreamIcNS_11char_traitsIcEEEC1EPKcj, symObjAddr: 0xCD4, symBinAddr: 0x100003A34, symSize: 0x17C }
  - { offsetInCU: 0xBA49, offset: 0xBA49, size: 0x8, addend: 0x0, symName: __ZNSt3__112basic_stringIcNS_11char_traitsIcEENS_9allocatorIcEEEC1B7v160006IDnEEPKc, symObjAddr: 0xE50, symBinAddr: 0x100003BB0, symSize: 0x34 }
  - { offsetInCU: 0xBAC4, offset: 0xBAC4, size: 0x8, addend: 0x0, symName: __ZN4GridC1Ev, symObjAddr: 0xE84, symBinAddr: 0x100003BE4, symSize: 0x2C }
  - { offsetInCU: 0xBB2E, offset: 0xBB2E, size: 0x8, addend: 0x0, symName: __ZN5GuardC1Ev, symObjAddr: 0xEB0, symBinAddr: 0x100003C10, symSize: 0x2C }
  - { offsetInCU: 0xBB5A, offset: 0xBB5A, size: 0x8, addend: 0x0, symName: __ZNKSt3__19basic_iosIcNS_11char_traitsIcEEEcvPvB7v160006Ev, symObjAddr: 0xF38, symBinAddr: 0x100003C98, symSize: 0x4C }
  - { offsetInCU: 0xBB80, offset: 0xBB80, size: 0x8, addend: 0x0, symName: __ZNKSt3__112basic_stringIcNS_11char_traitsIcEENS_9allocatorIcEEE6lengthB7v160006Ev, symObjAddr: 0xF84, symBinAddr: 0x100003CE4, symSize: 0x24 }
  - { offsetInCU: 0xBBAB, offset: 0xBBAB, size: 0x8, addend: 0x0, symName: __ZN8PositionC1Ev, symObjAddr: 0xFA8, symBinAddr: 0x100003D08, symSize: 0x2C }
  - { offsetInCU: 0xBBD7, offset: 0xBBD7, size: 0x8, addend: 0x0, symName: __ZNSt3__112basic_stringIcNS_11char_traitsIcEENS_9allocatorIcEEEixB7v160006Em, symObjAddr: 0xFD4, symBinAddr: 0x100003D34, symSize: 0x30 }
  - { offsetInCU: 0xBC0C, offset: 0xBC0C, size: 0x8, addend: 0x0, symName: __ZNSt3__16vectorI8PositionNS_9allocatorIS1_EEE9push_backB7v160006ERKS1_, symObjAddr: 0x1004, symBinAddr: 0x100003D64, symSize: 0x6C }
  - { offsetInCU: 0xBC43, offset: 0xBC43, size: 0x8, addend: 0x0, symName: __ZN4GridD1Ev, symObjAddr: 0x1070, symBinAddr: 0x100003DD0, symSize: 0x2C }
  - { offsetInCU: 0xBC74, offset: 0xBC74, size: 0x8, addend: 0x0, symName: __ZNSt3__114basic_ifstreamIcNS_11char_traitsIcEEED1Ev, symObjAddr: 0x109C, symBinAddr: 0x100003DFC, symSize: 0x70 }
  - { offsetInCU: 0xBCA1, offset: 0xBCA1, size: 0x8, addend: 0x0, symName: __ZNSt3__114basic_ofstreamIcNS_11char_traitsIcEEED2Ev, symObjAddr: 0x110C, symBinAddr: 0x100003E6C, symSize: 0x9C }
  - { offsetInCU: 0xBCDB, offset: 0xBCDB, size: 0x8, addend: 0x0, symName: __ZTv0_n24_NSt3__114basic_ofstreamIcNS_11char_traitsIcEEED1Ev, symObjAddr: 0x11A8, symBinAddr: 0x100003F08, symSize: 0x28 }
  - { offsetInCU: 0xBCF2, offset: 0xBCF2, size: 0x8, addend: 0x0, symName: __ZN4GridC2Ev, symObjAddr: 0x11D0, symBinAddr: 0x100003F30, symSize: 0x38 }
  - { offsetInCU: 0xBD23, offset: 0xBD23, size: 0x8, addend: 0x0, symName: __ZN5PointC1Ev, symObjAddr: 0x1208, symBinAddr: 0x100003F68, symSize: 0x2C }
  - { offsetInCU: 0xBD4F, offset: 0xBD4F, size: 0x8, addend: 0x0, symName: __ZNSt3__16vectorI8PositionNS_9allocatorIS1_EEEC1B7v160006Ev, symObjAddr: 0x1234, symBinAddr: 0x100003F94, symSize: 0x2C }
  - { offsetInCU: 0xBD79, offset: 0xBD79, size: 0x8, addend: 0x0, symName: __ZN5PointC2Ev, symObjAddr: 0x1260, symBinAddr: 0x100003FC0, symSize: 0x1C }
  - { offsetInCU: 0xBDA5, offset: 0xBDA5, size: 0x8, addend: 0x0, symName: __ZNSt3__16vectorI8PositionNS_9allocatorIS1_EEEC2B7v160006Ev, symObjAddr: 0x127C, symBinAddr: 0x100003FDC, symSize: 0x4C }
  - { offsetInCU: 0xBDD9, offset: 0xBDD9, size: 0x8, addend: 0x0, symName: __ZNSt3__117__compressed_pairIP8PositionNS_9allocatorIS1_EEEC1B7v160006IDnNS_18__default_init_tagEEEOT_OT0_, symObjAddr: 0x12C8, symBinAddr: 0x100004028, symSize: 0x3C }
  - { offsetInCU: 0xBE31, offset: 0xBE31, size: 0x8, addend: 0x0, symName: __ZNSt3__117__compressed_pairIP8PositionNS_9allocatorIS1_EEEC2B7v160006IDnNS_18__default_init_tagEEEOT_OT0_, symObjAddr: 0x1314, symBinAddr: 0x100004074, symSize: 0x40 }
  - { offsetInCU: 0xBE89, offset: 0xBE89, size: 0x8, addend: 0x0, symName: __ZNSt3__122__compressed_pair_elemIP8PositionLi0ELb0EEC2B7v160006IDnvEEOT_, symObjAddr: 0x1354, symBinAddr: 0x1000040B4, symSize: 0x1C }
  - { offsetInCU: 0xBECB, offset: 0xBECB, size: 0x8, addend: 0x0, symName: __ZNSt3__122__compressed_pair_elemINS_9allocatorI8PositionEELi1ELb1EEC2B7v160006ENS_18__default_init_tagE, symObjAddr: 0x1370, symBinAddr: 0x1000040D0, symSize: 0x2C }
  - { offsetInCU: 0xBF00, offset: 0xBF00, size: 0x8, addend: 0x0, symName: __ZNSt3__19allocatorI8PositionEC2B7v160006Ev, symObjAddr: 0x139C, symBinAddr: 0x1000040FC, symSize: 0x2C }
  - { offsetInCU: 0xBF2A, offset: 0xBF2A, size: 0x8, addend: 0x0, symName: __ZNSt3__116__non_trivial_ifILb1ENS_9allocatorI8PositionEEEC2B7v160006Ev, symObjAddr: 0x13C8, symBinAddr: 0x100004128, symSize: 0x14 }
  - { offsetInCU: 0xBF54, offset: 0xBF54, size: 0x8, addend: 0x0, symName: __ZN5GuardC2Ev, symObjAddr: 0x13DC, symBinAddr: 0x10000413C, symSize: 0x38 }
  - { offsetInCU: 0xBF80, offset: 0xBF80, size: 0x8, addend: 0x0, symName: __ZN8PositionC2Ev, symObjAddr: 0x1414, symBinAddr: 0x100004174, symSize: 0x34 }
  - { offsetInCU: 0xBFAC, offset: 0xBFAC, size: 0x8, addend: 0x0, symName: __ZN4GridD2Ev, symObjAddr: 0x1448, symBinAddr: 0x1000041A8, symSize: 0x30 }
  - { offsetInCU: 0xBFD8, offset: 0xBFD8, size: 0x8, addend: 0x0, symName: __ZNSt3__16vectorI8PositionNS_9allocatorIS1_EEED1B7v160006Ev, symObjAddr: 0x1478, symBinAddr: 0x1000041D8, symSize: 0x2C }
  - { offsetInCU: 0xC002, offset: 0xC002, size: 0x8, addend: 0x0, symName: __ZNSt3__16vectorI8PositionNS_9allocatorIS1_EEED2B7v160006Ev, symObjAddr: 0x14A4, symBinAddr: 0x100004204, symSize: 0x3C }
  - { offsetInCU: 0xC02C, offset: 0xC02C, size: 0x8, addend: 0x0, symName: __ZNSt3__16vectorI8PositionNS_9allocatorIS1_EEE16__destroy_vectorC1ERS4_, symObjAddr: 0x14E0, symBinAddr: 0x100004240, symSize: 0x34 }
  - { offsetInCU: 0xC065, offset: 0xC065, size: 0x8, addend: 0x0, symName: __ZNSt3__16vectorI8PositionNS_9allocatorIS1_EEE16__destroy_vectorclB7v160006Ev, symObjAddr: 0x1514, symBinAddr: 0x100004274, symSize: 0x9C }
  - { offsetInCU: 0xC08B, offset: 0xC08B, size: 0x8, addend: 0x0, symName: __ZNSt3__16vectorI8PositionNS_9allocatorIS1_EEE16__destroy_vectorC2ERS4_, symObjAddr: 0x15B0, symBinAddr: 0x100004310, symSize: 0x20 }
  - { offsetInCU: 0xC0C4, offset: 0xC0C4, size: 0x8, addend: 0x0, symName: __ZNKSt3__16vectorI8PositionNS_9allocatorIS1_EEE17__annotate_deleteB7v160006Ev, symObjAddr: 0x15D0, symBinAddr: 0x100004330, symSize: 0xB8 }
  - { offsetInCU: 0xC0EA, offset: 0xC0EA, size: 0x8, addend: 0x0, symName: __ZNSt3__16vectorI8PositionNS_9allocatorIS1_EEE7__clearB7v160006Ev, symObjAddr: 0x1698, symBinAddr: 0x1000043F8, symSize: 0x28 }
  - { offsetInCU: 0xC110, offset: 0xC110, size: 0x8, addend: 0x0, symName: __ZNSt3__116allocator_traitsINS_9allocatorI8PositionEEE10deallocateB7v160006ERS3_PS2_m, symObjAddr: 0x16C0, symBinAddr: 0x100004420, symSize: 0x34 }
  - { offsetInCU: 0xC152, offset: 0xC152, size: 0x8, addend: 0x0, symName: __ZNSt3__16vectorI8PositionNS_9allocatorIS1_EEE7__allocB7v160006Ev, symObjAddr: 0x16F4, symBinAddr: 0x100004454, symSize: 0x28 }
  - { offsetInCU: 0xC178, offset: 0xC178, size: 0x8, addend: 0x0, symName: __ZNKSt3__16vectorI8PositionNS_9allocatorIS1_EEE8capacityB7v160006Ev, symObjAddr: 0x171C, symBinAddr: 0x10000447C, symSize: 0x40 }
  - { offsetInCU: 0xC19E, offset: 0xC19E, size: 0x8, addend: 0x0, symName: __ZNKSt3__16vectorI8PositionNS_9allocatorIS1_EEE31__annotate_contiguous_containerB7v160006EPKvS6_S6_S6_, symObjAddr: 0x175C, symBinAddr: 0x1000044BC, symSize: 0x20 }
  - { offsetInCU: 0xC1F0, offset: 0xC1F0, size: 0x8, addend: 0x0, symName: __ZNKSt3__16vectorI8PositionNS_9allocatorIS1_EEE4dataB7v160006Ev, symObjAddr: 0x177C, symBinAddr: 0x1000044DC, symSize: 0x28 }
  - { offsetInCU: 0xC216, offset: 0xC216, size: 0x8, addend: 0x0, symName: __ZNSt3__16vectorI8PositionNS_9allocatorIS1_EEE22__base_destruct_at_endB7v160006EPS1_, symObjAddr: 0x17B8, symBinAddr: 0x100004518, symSize: 0xA0 }
  - { offsetInCU: 0xC25A, offset: 0xC25A, size: 0x8, addend: 0x0, symName: __ZNSt3__116allocator_traitsINS_9allocatorI8PositionEEE7destroyB7v160006IS2_vEEvRS3_PT_, symObjAddr: 0x1858, symBinAddr: 0x1000045B8, symSize: 0x2C }
  - { offsetInCU: 0xC297, offset: 0xC297, size: 0x8, addend: 0x0, symName: __ZNSt3__19allocatorI8PositionE7destroyB7v160006EPS1_, symObjAddr: 0x1884, symBinAddr: 0x1000045E4, symSize: 0x14 }
  - { offsetInCU: 0xC2CB, offset: 0xC2CB, size: 0x8, addend: 0x0, symName: __ZNSt3__19allocatorI8PositionE10deallocateB7v160006EPS1_m, symObjAddr: 0x1898, symBinAddr: 0x1000045F8, symSize: 0x70 }
  - { offsetInCU: 0xC30D, offset: 0xC30D, size: 0x8, addend: 0x0, symName: __ZNSt3__117__compressed_pairIP8PositionNS_9allocatorIS1_EEE6secondB7v160006Ev, symObjAddr: 0x1990, symBinAddr: 0x1000046F0, symSize: 0x24 }
  - { offsetInCU: 0xC333, offset: 0xC333, size: 0x8, addend: 0x0, symName: __ZNSt3__122__compressed_pair_elemINS_9allocatorI8PositionEELi1ELb1EE5__getB7v160006Ev, symObjAddr: 0x19B4, symBinAddr: 0x100004714, symSize: 0x14 }
  - { offsetInCU: 0xC359, offset: 0xC359, size: 0x8, addend: 0x0, symName: __ZNKSt3__16vectorI8PositionNS_9allocatorIS1_EEE9__end_capB7v160006Ev, symObjAddr: 0x19C8, symBinAddr: 0x100004728, symSize: 0x28 }
  - { offsetInCU: 0xC37F, offset: 0xC37F, size: 0x8, addend: 0x0, symName: __ZNKSt3__117__compressed_pairIP8PositionNS_9allocatorIS1_EEE5firstB7v160006Ev, symObjAddr: 0x19F0, symBinAddr: 0x100004750, symSize: 0x24 }
  - { offsetInCU: 0xC3A5, offset: 0xC3A5, size: 0x8, addend: 0x0, symName: __ZNKSt3__122__compressed_pair_elemIP8PositionLi0ELb0EE5__getB7v160006Ev, symObjAddr: 0x1A14, symBinAddr: 0x100004774, symSize: 0x14 }
  - { offsetInCU: 0xC3CB, offset: 0xC3CB, size: 0x8, addend: 0x0, symName: __ZNSt3__114basic_ifstreamIcNS_11char_traitsIcEEED2Ev, symObjAddr: 0x1A28, symBinAddr: 0x100004788, symSize: 0x9C }
  - { offsetInCU: 0xC405, offset: 0xC405, size: 0x8, addend: 0x0, symName: __ZTv0_n24_NSt3__114basic_ifstreamIcNS_11char_traitsIcEEED1Ev, symObjAddr: 0x1AC4, symBinAddr: 0x100004824, symSize: 0x28 }
  - { offsetInCU: 0xC41C, offset: 0xC41C, size: 0x8, addend: 0x0, symName: __ZNSt3__19basic_iosIcNS_11char_traitsIcEEEC2B7v160006Ev, symObjAddr: 0x1AEC, symBinAddr: 0x10000484C, symSize: 0x44 }
  - { offsetInCU: 0xC446, offset: 0xC446, size: 0x8, addend: 0x0, symName: __ZNSt3__113basic_ostreamIcNS_11char_traitsIcEEEC2B7v160006EPNS_15basic_streambufIcS2_EE, symObjAddr: 0x1B30, symBinAddr: 0x100004890, symSize: 0x60 }
  - { offsetInCU: 0xC48B, offset: 0xC48B, size: 0x8, addend: 0x0, symName: __ZNSt3__19basic_iosIcNS_11char_traitsIcEEE8setstateB7v160006Ej, symObjAddr: 0x1B90, symBinAddr: 0x1000048F0, symSize: 0x2C }
  - { offsetInCU: 0xC4C0, offset: 0xC4C0, size: 0x8, addend: 0x0, symName: __ZNSt3__18ios_baseC2B7v160006Ev, symObjAddr: 0x1BBC, symBinAddr: 0x10000491C, symSize: 0x24 }
  - { offsetInCU: 0xC4EA, offset: 0xC4EA, size: 0x8, addend: 0x0, symName: __ZNSt3__19basic_iosIcNS_11char_traitsIcEEE4initB7v160006EPNS_15basic_streambufIcS2_EE, symObjAddr: 0x1BE0, symBinAddr: 0x100004940, symSize: 0x44 }
  - { offsetInCU: 0xC521, offset: 0xC521, size: 0x8, addend: 0x0, symName: __ZNSt3__111char_traitsIcE3eofEv, symObjAddr: 0x1C24, symBinAddr: 0x100004984, symSize: 0x8 }
  - { offsetInCU: 0xC535, offset: 0xC535, size: 0x8, addend: 0x0, symName: __ZNSt3__18ios_base8setstateB7v160006Ej, symObjAddr: 0x1C2C, symBinAddr: 0x10000498C, symSize: 0x34 }
  - { offsetInCU: 0xC56C, offset: 0xC56C, size: 0x8, addend: 0x0, symName: __ZNKSt3__19basic_iosIcNS_11char_traitsIcEEE5widenB7v160006Ec, symObjAddr: 0x1C60, symBinAddr: 0x1000049C0, symSize: 0x8C }
  - { offsetInCU: 0xC5DA, offset: 0xC5DA, size: 0x8, addend: 0x0, symName: __ZNKSt3__15ctypeIcE5widenB7v160006Ec, symObjAddr: 0x1D18, symBinAddr: 0x100004A78, symSize: 0x38 }
  - { offsetInCU: 0xC60F, offset: 0xC60F, size: 0x8, addend: 0x0, symName: __ZNSt3__111char_traitsIcE6lengthEPKc, symObjAddr: 0x1F44, symBinAddr: 0x100004CA4, symSize: 0x48 }
  - { offsetInCU: 0xC650, offset: 0xC650, size: 0x8, addend: 0x0, symName: __ZNKSt3__113basic_ostreamIcNS_11char_traitsIcEEE6sentrycvbB7v160006Ev, symObjAddr: 0x1F8C, symBinAddr: 0x100004CEC, symSize: 0x1C }
  - { offsetInCU: 0xC676, offset: 0xC676, size: 0x8, addend: 0x0, symName: __ZNSt3__119ostreambuf_iteratorIcNS_11char_traitsIcEEEC1B7v160006ERNS_13basic_ostreamIcS2_EE, symObjAddr: 0x21F0, symBinAddr: 0x100004F50, symSize: 0x34 }
  - { offsetInCU: 0xC6AE, offset: 0xC6AE, size: 0x8, addend: 0x0, symName: __ZNKSt3__18ios_base5flagsB7v160006Ev, symObjAddr: 0x2224, symBinAddr: 0x100004F84, symSize: 0x18 }
  - { offsetInCU: 0xC6D6, offset: 0xC6D6, size: 0x8, addend: 0x0, symName: __ZNKSt3__19basic_iosIcNS_11char_traitsIcEEE4fillB7v160006Ev, symObjAddr: 0x223C, symBinAddr: 0x100004F9C, symSize: 0x64 }
  - { offsetInCU: 0xC6FE, offset: 0xC6FE, size: 0x8, addend: 0x0, symName: __ZNKSt3__119ostreambuf_iteratorIcNS_11char_traitsIcEEE6failedB7v160006Ev, symObjAddr: 0x22A0, symBinAddr: 0x100005000, symSize: 0x24 }
  - { offsetInCU: 0xC724, offset: 0xC724, size: 0x8, addend: 0x0, symName: __ZNKSt3__18ios_base5widthB7v160006Ev, symObjAddr: 0x22C4, symBinAddr: 0x100005024, symSize: 0x18 }
  - { offsetInCU: 0xC74C, offset: 0xC74C, size: 0x8, addend: 0x0, symName: __ZNSt3__115basic_streambufIcNS_11char_traitsIcEEE5sputnB7v160006EPKcl, symObjAddr: 0x22DC, symBinAddr: 0x10000503C, symSize: 0x3C }
  - { offsetInCU: 0xC78E, offset: 0xC78E, size: 0x8, addend: 0x0, symName: __ZNSt3__112basic_stringIcNS_11char_traitsIcEENS_9allocatorIcEEEC1B7v160006Emc, symObjAddr: 0x2318, symBinAddr: 0x100005078, symSize: 0x3C }
  - { offsetInCU: 0xC7D6, offset: 0xC7D6, size: 0x8, addend: 0x0, symName: __ZNKSt3__112basic_stringIcNS_11char_traitsIcEENS_9allocatorIcEEE4dataB7v160006Ev, symObjAddr: 0x2354, symBinAddr: 0x1000050B4, symSize: 0x28 }
  - { offsetInCU: 0xC7FC, offset: 0xC7FC, size: 0x8, addend: 0x0, symName: __ZNSt3__18ios_base5widthB7v160006El, symObjAddr: 0x237C, symBinAddr: 0x1000050DC, symSize: 0x2C }
  - { offsetInCU: 0xC842, offset: 0xC842, size: 0x8, addend: 0x0, symName: __ZNSt3__112basic_stringIcNS_11char_traitsIcEENS_9allocatorIcEEEC2B7v160006Emc, symObjAddr: 0x23A8, symBinAddr: 0x100005108, symSize: 0x54 }
  - { offsetInCU: 0xC88A, offset: 0xC88A, size: 0x8, addend: 0x0, symName: __ZNSt3__117__compressed_pairINS_12basic_stringIcNS_11char_traitsIcEENS_9allocatorIcEEE5__repES5_EC1B7v160006INS_18__default_init_tagESA_EEOT_OT0_, symObjAddr: 0x23FC, symBinAddr: 0x10000515C, symSize: 0x3C }
  - { offsetInCU: 0xC8E2, offset: 0xC8E2, size: 0x8, addend: 0x0, symName: __ZNSt3__117__compressed_pairINS_12basic_stringIcNS_11char_traitsIcEENS_9allocatorIcEEE5__repES5_EC2B7v160006INS_18__default_init_tagESA_EEOT_OT0_, symObjAddr: 0x2448, symBinAddr: 0x1000051A8, symSize: 0x3C }
  - { offsetInCU: 0xC93A, offset: 0xC93A, size: 0x8, addend: 0x0, symName: __ZNSt3__122__compressed_pair_elemINS_12basic_stringIcNS_11char_traitsIcEENS_9allocatorIcEEE5__repELi0ELb0EEC2B7v160006ENS_18__default_init_tagE, symObjAddr: 0x2484, symBinAddr: 0x1000051E4, symSize: 0x14 }
  - { offsetInCU: 0xC96F, offset: 0xC96F, size: 0x8, addend: 0x0, symName: __ZNSt3__122__compressed_pair_elemINS_9allocatorIcEELi1ELb1EEC2B7v160006ENS_18__default_init_tagE, symObjAddr: 0x2498, symBinAddr: 0x1000051F8, symSize: 0x2C }
  - { offsetInCU: 0xC9A4, offset: 0xC9A4, size: 0x8, addend: 0x0, symName: __ZNSt3__19allocatorIcEC2B7v160006Ev, symObjAddr: 0x24C4, symBinAddr: 0x100005224, symSize: 0x2C }
  - { offsetInCU: 0xC9CE, offset: 0xC9CE, size: 0x8, addend: 0x0, symName: __ZNSt3__116__non_trivial_ifILb1ENS_9allocatorIcEEEC2B7v160006Ev, symObjAddr: 0x24F0, symBinAddr: 0x100005250, symSize: 0x14 }
  - { offsetInCU: 0xC9F8, offset: 0xC9F8, size: 0x8, addend: 0x0, symName: __ZNKSt3__112basic_stringIcNS_11char_traitsIcEENS_9allocatorIcEEE13__get_pointerB7v160006Ev, symObjAddr: 0x2518, symBinAddr: 0x100005278, symSize: 0x54 }
  - { offsetInCU: 0xCA1E, offset: 0xCA1E, size: 0x8, addend: 0x0, symName: __ZNKSt3__112basic_stringIcNS_11char_traitsIcEENS_9allocatorIcEEE9__is_longB7v160006Ev, symObjAddr: 0x256C, symBinAddr: 0x1000052CC, symSize: 0x74 }
  - { offsetInCU: 0xCA44, offset: 0xCA44, size: 0x8, addend: 0x0, symName: __ZNKSt3__112basic_stringIcNS_11char_traitsIcEENS_9allocatorIcEEE18__get_long_pointerB7v160006Ev, symObjAddr: 0x25E0, symBinAddr: 0x100005340, symSize: 0x28 }
  - { offsetInCU: 0xCA6A, offset: 0xCA6A, size: 0x8, addend: 0x0, symName: __ZNKSt3__112basic_stringIcNS_11char_traitsIcEENS_9allocatorIcEEE19__get_short_pointerB7v160006Ev, symObjAddr: 0x2608, symBinAddr: 0x100005368, symSize: 0x28 }
  - { offsetInCU: 0xCA90, offset: 0xCA90, size: 0x8, addend: 0x0, symName: __ZNKSt3__117__compressed_pairINS_12basic_stringIcNS_11char_traitsIcEENS_9allocatorIcEEE5__repES5_E5firstB7v160006Ev, symObjAddr: 0x2630, symBinAddr: 0x100005390, symSize: 0x24 }
  - { offsetInCU: 0xCAB6, offset: 0xCAB6, size: 0x8, addend: 0x0, symName: __ZNKSt3__122__compressed_pair_elemINS_12basic_stringIcNS_11char_traitsIcEENS_9allocatorIcEEE5__repELi0ELb0EE5__getB7v160006Ev, symObjAddr: 0x2654, symBinAddr: 0x1000053B4, symSize: 0x14 }
  - { offsetInCU: 0xCADC, offset: 0xCADC, size: 0x8, addend: 0x0, symName: __ZNSt3__114pointer_traitsIPKcE10pointer_toB7v160006ERS1_, symObjAddr: 0x2668, symBinAddr: 0x1000053C8, symSize: 0x14 }
  - { offsetInCU: 0xCAFF, offset: 0xCAFF, size: 0x8, addend: 0x0, symName: __ZNSt3__119ostreambuf_iteratorIcNS_11char_traitsIcEEEC2B7v160006ERNS_13basic_ostreamIcS2_EE, symObjAddr: 0x267C, symBinAddr: 0x1000053DC, symSize: 0x68 }
  - { offsetInCU: 0xCB37, offset: 0xCB37, size: 0x8, addend: 0x0, symName: __ZNKSt3__19basic_iosIcNS_11char_traitsIcEEE5rdbufB7v160006Ev, symObjAddr: 0x26E4, symBinAddr: 0x100005444, symSize: 0x24 }
  - { offsetInCU: 0xCB5F, offset: 0xCB5F, size: 0x8, addend: 0x0, symName: __ZNKSt3__18ios_base5rdbufB7v160006Ev, symObjAddr: 0x2708, symBinAddr: 0x100005468, symSize: 0x18 }
  - { offsetInCU: 0xCB85, offset: 0xCB85, size: 0x8, addend: 0x0, symName: __ZNSt3__111char_traitsIcE11eq_int_typeEii, symObjAddr: 0x2720, symBinAddr: 0x100005480, symSize: 0x28 }
  - { offsetInCU: 0xCBB6, offset: 0xCBB6, size: 0x8, addend: 0x0, symName: __ZNKSt3__16vectorI8PositionNS_9allocatorIS1_EEE20__throw_out_of_rangeB7v160006Ev, symObjAddr: 0x276C, symBinAddr: 0x1000054CC, symSize: 0x1C }
  - { offsetInCU: 0xCBDC, offset: 0xCBDC, size: 0x8, addend: 0x0, symName: __ZNSt12out_of_rangeC1B7v160006EPKc, symObjAddr: 0x27EC, symBinAddr: 0x10000554C, symSize: 0x34 }
  - { offsetInCU: 0xCC14, offset: 0xCC14, size: 0x8, addend: 0x0, symName: __ZNSt12out_of_rangeC2B7v160006EPKc, symObjAddr: 0x2820, symBinAddr: 0x100005580, symSize: 0x4C }
  - { offsetInCU: 0xCC4C, offset: 0xCC4C, size: 0x8, addend: 0x0, symName: __ZNSt3__113basic_istreamIcNS_11char_traitsIcEEEC2B7v160006EPNS_15basic_streambufIcS2_EE, symObjAddr: 0x286C, symBinAddr: 0x1000055CC, symSize: 0x64 }
  - { offsetInCU: 0xCC91, offset: 0xCC91, size: 0x8, addend: 0x0, symName: __ZNSt3__112basic_stringIcNS_11char_traitsIcEENS_9allocatorIcEEEC2B7v160006IDnEEPKc, symObjAddr: 0x28D0, symBinAddr: 0x100005630, symSize: 0x60 }
  - { offsetInCU: 0xCCED, offset: 0xCCED, size: 0x8, addend: 0x0, symName: __ZNKSt3__113basic_istreamIcNS_11char_traitsIcEEE6sentrycvbB7v160006Ev, symObjAddr: 0x2B68, symBinAddr: 0x1000058C8, symSize: 0x1C }
  - { offsetInCU: 0xCD13, offset: 0xCD13, size: 0x8, addend: 0x0, symName: __ZNSt3__112basic_stringIcNS_11char_traitsIcEENS_9allocatorIcEEE5clearB7v160006Ev, symObjAddr: 0x2B84, symBinAddr: 0x1000058E4, symSize: 0x9C }
  - { offsetInCU: 0xCD3B, offset: 0xCD3B, size: 0x8, addend: 0x0, symName: __ZNSt3__115basic_streambufIcNS_11char_traitsIcEEE6sbumpcB7v160006Ev, symObjAddr: 0x2C20, symBinAddr: 0x100005980, symSize: 0x78 }
  - { offsetInCU: 0xCD61, offset: 0xCD61, size: 0x8, addend: 0x0, symName: __ZNSt3__111char_traitsIcE12to_char_typeEi, symObjAddr: 0x2C98, symBinAddr: 0x1000059F8, symSize: 0x18 }
  - { offsetInCU: 0xCD84, offset: 0xCD84, size: 0x8, addend: 0x0, symName: __ZNSt3__111char_traitsIcE2eqEcc, symObjAddr: 0x2CB0, symBinAddr: 0x100005A10, symSize: 0x28 }
  - { offsetInCU: 0xCDB5, offset: 0xCDB5, size: 0x8, addend: 0x0, symName: __ZNKSt3__112basic_stringIcNS_11char_traitsIcEENS_9allocatorIcEEE4sizeB7v160006Ev, symObjAddr: 0x2CD8, symBinAddr: 0x100005A38, symSize: 0x54 }
  - { offsetInCU: 0xCDDB, offset: 0xCDDB, size: 0x8, addend: 0x0, symName: __ZNKSt3__112basic_stringIcNS_11char_traitsIcEENS_9allocatorIcEEE8max_sizeB7v160006Ev, symObjAddr: 0x2D2C, symBinAddr: 0x100005A8C, symSize: 0xAC }
  - { offsetInCU: 0xCE2E, offset: 0xCE2E, size: 0x8, addend: 0x0, symName: __ZNSt3__18ios_base18__setstate_nothrowB7v160006Ej, symObjAddr: 0x2DD8, symBinAddr: 0x100005B38, symSize: 0x64 }
  - { offsetInCU: 0xCE63, offset: 0xCE63, size: 0x8, addend: 0x0, symName: __ZNKSt3__19basic_iosIcNS_11char_traitsIcEEE10exceptionsB7v160006Ev, symObjAddr: 0x2E3C, symBinAddr: 0x100005B9C, symSize: 0x24 }
  - { offsetInCU: 0xCE89, offset: 0xCE89, size: 0x8, addend: 0x0, symName: __ZNSt3__111char_traitsIcE6assignERcRKc, symObjAddr: 0x2E70, symBinAddr: 0x100005BD0, symSize: 0x24 }
  - { offsetInCU: 0xCEBA, offset: 0xCEBA, size: 0x8, addend: 0x0, symName: __ZNSt3__112basic_stringIcNS_11char_traitsIcEENS_9allocatorIcEEE18__get_long_pointerB7v160006Ev, symObjAddr: 0x2E94, symBinAddr: 0x100005BF4, symSize: 0x28 }
  - { offsetInCU: 0xCEE0, offset: 0xCEE0, size: 0x8, addend: 0x0, symName: __ZNSt3__112basic_stringIcNS_11char_traitsIcEENS_9allocatorIcEEE15__set_long_sizeB7v160006Em, symObjAddr: 0x2EBC, symBinAddr: 0x100005C1C, symSize: 0x38 }
  - { offsetInCU: 0xCF15, offset: 0xCF15, size: 0x8, addend: 0x0, symName: __ZNSt3__112basic_stringIcNS_11char_traitsIcEENS_9allocatorIcEEE19__get_short_pointerB7v160006Ev, symObjAddr: 0x2EF4, symBinAddr: 0x100005C54, symSize: 0x28 }
  - { offsetInCU: 0xCF3B, offset: 0xCF3B, size: 0x8, addend: 0x0, symName: __ZNSt3__112basic_stringIcNS_11char_traitsIcEENS_9allocatorIcEEE16__set_short_sizeB7v160006Em, symObjAddr: 0x2F1C, symBinAddr: 0x100005C7C, symSize: 0x78 }
  - { offsetInCU: 0xCF70, offset: 0xCF70, size: 0x8, addend: 0x0, symName: __ZNSt3__117__compressed_pairINS_12basic_stringIcNS_11char_traitsIcEENS_9allocatorIcEEE5__repES5_E5firstB7v160006Ev, symObjAddr: 0x2F94, symBinAddr: 0x100005CF4, symSize: 0x24 }
  - { offsetInCU: 0xCF96, offset: 0xCF96, size: 0x8, addend: 0x0, symName: __ZNSt3__122__compressed_pair_elemINS_12basic_stringIcNS_11char_traitsIcEENS_9allocatorIcEEE5__repELi0ELb0EE5__getB7v160006Ev, symObjAddr: 0x2FB8, symBinAddr: 0x100005D18, symSize: 0x14 }
  - { offsetInCU: 0xCFBC, offset: 0xCFBC, size: 0x8, addend: 0x0, symName: __ZNSt3__114pointer_traitsIPcE10pointer_toB7v160006ERc, symObjAddr: 0x2FCC, symBinAddr: 0x100005D2C, symSize: 0x14 }
  - { offsetInCU: 0xCFDF, offset: 0xCFDF, size: 0x8, addend: 0x0, symName: __ZNSt3__111char_traitsIcE11to_int_typeEc, symObjAddr: 0x2FE0, symBinAddr: 0x100005D40, symSize: 0x14 }
  - { offsetInCU: 0xD002, offset: 0xD002, size: 0x8, addend: 0x0, symName: __ZNKSt3__112basic_stringIcNS_11char_traitsIcEENS_9allocatorIcEEE15__get_long_sizeB7v160006Ev, symObjAddr: 0x2FF4, symBinAddr: 0x100005D54, symSize: 0x28 }
  - { offsetInCU: 0xD028, offset: 0xD028, size: 0x8, addend: 0x0, symName: __ZNKSt3__112basic_stringIcNS_11char_traitsIcEENS_9allocatorIcEEE16__get_short_sizeB7v160006Ev, symObjAddr: 0x301C, symBinAddr: 0x100005D7C, symSize: 0x34 }
  - { offsetInCU: 0xD058, offset: 0xD058, size: 0x8, addend: 0x0, symName: __ZNSt3__116allocator_traitsINS_9allocatorIcEEE8max_sizeB7v160006IS2_vEEmRKS2_, symObjAddr: 0x3050, symBinAddr: 0x100005DB0, symSize: 0x24 }
  - { offsetInCU: 0xD086, offset: 0xD086, size: 0x8, addend: 0x0, symName: __ZNKSt3__112basic_stringIcNS_11char_traitsIcEENS_9allocatorIcEEE7__allocB7v160006Ev, symObjAddr: 0x3074, symBinAddr: 0x100005DD4, symSize: 0x24 }
  - { offsetInCU: 0xD0AC, offset: 0xD0AC, size: 0x8, addend: 0x0, symName: __ZNSt3__114numeric_limitsImE3maxB7v160006Ev, symObjAddr: 0x3098, symBinAddr: 0x100005DF8, symSize: 0x14 }
  - { offsetInCU: 0xD0C0, offset: 0xD0C0, size: 0x8, addend: 0x0, symName: __ZNKSt3__19allocatorIcE8max_sizeB7v160006Ev, symObjAddr: 0x30AC, symBinAddr: 0x100005E0C, symSize: 0x14 }
  - { offsetInCU: 0xD0E6, offset: 0xD0E6, size: 0x8, addend: 0x0, symName: __ZNKSt3__117__compressed_pairINS_12basic_stringIcNS_11char_traitsIcEENS_9allocatorIcEEE5__repES5_E6secondB7v160006Ev, symObjAddr: 0x30C0, symBinAddr: 0x100005E20, symSize: 0x24 }
  - { offsetInCU: 0xD10C, offset: 0xD10C, size: 0x8, addend: 0x0, symName: __ZNKSt3__122__compressed_pair_elemINS_9allocatorIcEELi1ELb1EE5__getB7v160006Ev, symObjAddr: 0x30E4, symBinAddr: 0x100005E44, symSize: 0x14 }
  - { offsetInCU: 0xD132, offset: 0xD132, size: 0x8, addend: 0x0, symName: __ZNSt3__123__libcpp_numeric_limitsImLb1EE3maxB7v160006Ev, symObjAddr: 0x30F8, symBinAddr: 0x100005E58, symSize: 0x8 }
  - { offsetInCU: 0xD146, offset: 0xD146, size: 0x8, addend: 0x0, symName: __ZNKSt3__18ios_base10exceptionsB7v160006Ev, symObjAddr: 0x3100, symBinAddr: 0x100005E60, symSize: 0x18 }
  - { offsetInCU: 0xD16E, offset: 0xD16E, size: 0x8, addend: 0x0, symName: __ZNKSt3__19basic_iosIcNS_11char_traitsIcEEE4failB7v160006Ev, symObjAddr: 0x3118, symBinAddr: 0x100005E78, symSize: 0x28 }
  - { offsetInCU: 0xD194, offset: 0xD194, size: 0x8, addend: 0x0, symName: __ZNKSt3__18ios_base4failB7v160006Ev, symObjAddr: 0x3140, symBinAddr: 0x100005EA0, symSize: 0x28 }
  - { offsetInCU: 0xD1BC, offset: 0xD1BC, size: 0x8, addend: 0x0, symName: __ZNSt3__112basic_stringIcNS_11char_traitsIcEENS_9allocatorIcEEE13__get_pointerB7v160006Ev, symObjAddr: 0x3168, symBinAddr: 0x100005EC8, symSize: 0x54 }
  - { offsetInCU: 0xD1E2, offset: 0xD1E2, size: 0x8, addend: 0x0, symName: __ZNSt3__16vectorI8PositionNS_9allocatorIS1_EEE9__end_capB7v160006Ev, symObjAddr: 0x31BC, symBinAddr: 0x100005F1C, symSize: 0x28 }
  - { offsetInCU: 0xD208, offset: 0xD208, size: 0x8, addend: 0x0, symName: __ZNSt3__16vectorI8PositionNS_9allocatorIS1_EEE22__construct_one_at_endB7v160006IJRKS1_EEEvDpOT_, symObjAddr: 0x31E4, symBinAddr: 0x100005F44, symSize: 0x98 }
  - { offsetInCU: 0xD257, offset: 0xD257, size: 0x8, addend: 0x0, symName: __ZNSt3__16vectorI8PositionNS_9allocatorIS1_EEE21__push_back_slow_pathIRKS1_EEvOT_, symObjAddr: 0x327C, symBinAddr: 0x100005FDC, symSize: 0xE0 }
  - { offsetInCU: 0xD2B5, offset: 0xD2B5, size: 0x8, addend: 0x0, symName: __ZNSt3__117__compressed_pairIP8PositionNS_9allocatorIS1_EEE5firstB7v160006Ev, symObjAddr: 0x335C, symBinAddr: 0x1000060BC, symSize: 0x24 }
  - { offsetInCU: 0xD2DB, offset: 0xD2DB, size: 0x8, addend: 0x0, symName: __ZNSt3__122__compressed_pair_elemIP8PositionLi0ELb0EE5__getB7v160006Ev, symObjAddr: 0x3380, symBinAddr: 0x1000060E0, symSize: 0x14 }
  - { offsetInCU: 0xD31A, offset: 0xD31A, size: 0x8, addend: 0x0, symName: __ZNSt3__16vectorI8PositionNS_9allocatorIS1_EEE21_ConstructTransactionC1B7v160006ERS4_m, symObjAddr: 0x3394, symBinAddr: 0x1000060F4, symSize: 0x3C }
  - { offsetInCU: 0xD362, offset: 0xD362, size: 0x8, addend: 0x0, symName: __ZNSt3__116allocator_traitsINS_9allocatorI8PositionEEE9constructB7v160006IS2_JRKS2_EvEEvRS3_PT_DpOT0_, symObjAddr: 0x33D0, symBinAddr: 0x100006130, symSize: 0x34 }
  - { offsetInCU: 0xD3B9, offset: 0xD3B9, size: 0x8, addend: 0x0, symName: __ZNSt3__16vectorI8PositionNS_9allocatorIS1_EEE21_ConstructTransactionD1B7v160006Ev, symObjAddr: 0x3404, symBinAddr: 0x100006164, symSize: 0x2C }
  - { offsetInCU: 0xD3E3, offset: 0xD3E3, size: 0x8, addend: 0x0, symName: __ZNSt3__16vectorI8PositionNS_9allocatorIS1_EEE21_ConstructTransactionC2B7v160006ERS4_m, symObjAddr: 0x3430, symBinAddr: 0x100006190, symSize: 0x44 }
  - { offsetInCU: 0xD42B, offset: 0xD42B, size: 0x8, addend: 0x0, symName: __ZNSt3__19allocatorI8PositionE9constructB7v160006IS1_JRKS1_EEEvPT_DpOT0_, symObjAddr: 0x3474, symBinAddr: 0x1000061D4, symSize: 0x28 }
  - { offsetInCU: 0xD481, offset: 0xD481, size: 0x8, addend: 0x0, symName: __ZNSt3__16vectorI8PositionNS_9allocatorIS1_EEE21_ConstructTransactionD2B7v160006Ev, symObjAddr: 0x349C, symBinAddr: 0x1000061FC, symSize: 0x20 }
  - { offsetInCU: 0xD4AB, offset: 0xD4AB, size: 0x8, addend: 0x0, symName: __ZNKSt3__16vectorI8PositionNS_9allocatorIS1_EEE11__recommendB7v160006Em, symObjAddr: 0x34BC, symBinAddr: 0x10000621C, symSize: 0xB4 }
  - { offsetInCU: 0xD500, offset: 0xD500, size: 0x8, addend: 0x0, symName: __ZNSt3__114__split_bufferI8PositionRNS_9allocatorIS1_EEEC1EmmS4_, symObjAddr: 0x3570, symBinAddr: 0x1000062D0, symSize: 0x44 }
  - { offsetInCU: 0xD556, offset: 0xD556, size: 0x8, addend: 0x0, symName: __ZNSt3__114__split_bufferI8PositionRNS_9allocatorIS1_EEED1Ev, symObjAddr: 0x36CC, symBinAddr: 0x10000642C, symSize: 0x2C }
  - { offsetInCU: 0xD582, offset: 0xD582, size: 0x8, addend: 0x0, symName: __ZNKSt3__16vectorI8PositionNS_9allocatorIS1_EEE8max_sizeEv, symObjAddr: 0x36F8, symBinAddr: 0x100006458, symSize: 0x74 }
  - { offsetInCU: 0xD5AA, offset: 0xD5AA, size: 0x8, addend: 0x0, symName: __ZNKSt3__16vectorI8PositionNS_9allocatorIS1_EEE20__throw_length_errorB7v160006Ev, symObjAddr: 0x376C, symBinAddr: 0x1000064CC, symSize: 0x1C }
  - { offsetInCU: 0xD5DA, offset: 0xD5DA, size: 0x8, addend: 0x0, symName: __ZNSt3__116allocator_traitsINS_9allocatorI8PositionEEE8max_sizeB7v160006IS3_vEEmRKS3_, symObjAddr: 0x37E0, symBinAddr: 0x100006540, symSize: 0x24 }
  - { offsetInCU: 0xD608, offset: 0xD608, size: 0x8, addend: 0x0, symName: __ZNKSt3__16vectorI8PositionNS_9allocatorIS1_EEE7__allocB7v160006Ev, symObjAddr: 0x3804, symBinAddr: 0x100006564, symSize: 0x28 }
  - { offsetInCU: 0xD62E, offset: 0xD62E, size: 0x8, addend: 0x0, symName: __ZNSt3__114numeric_limitsIlE3maxB7v160006Ev, symObjAddr: 0x382C, symBinAddr: 0x10000658C, symSize: 0x14 }
  - { offsetInCU: 0xD656, offset: 0xD656, size: 0x8, addend: 0x0, symName: __ZNKSt3__16__lessImmEclB7v160006ERKmS3_, symObjAddr: 0x3894, symBinAddr: 0x1000065F4, symSize: 0x34 }
  - { offsetInCU: 0xD698, offset: 0xD698, size: 0x8, addend: 0x0, symName: __ZNKSt3__19allocatorI8PositionE8max_sizeB7v160006Ev, symObjAddr: 0x38C8, symBinAddr: 0x100006628, symSize: 0x14 }
  - { offsetInCU: 0xD6BE, offset: 0xD6BE, size: 0x8, addend: 0x0, symName: __ZNKSt3__117__compressed_pairIP8PositionNS_9allocatorIS1_EEE6secondB7v160006Ev, symObjAddr: 0x38DC, symBinAddr: 0x10000663C, symSize: 0x24 }
  - { offsetInCU: 0xD6E4, offset: 0xD6E4, size: 0x8, addend: 0x0, symName: __ZNKSt3__122__compressed_pair_elemINS_9allocatorI8PositionEELi1ELb1EE5__getB7v160006Ev, symObjAddr: 0x3900, symBinAddr: 0x100006660, symSize: 0x14 }
  - { offsetInCU: 0xD70A, offset: 0xD70A, size: 0x8, addend: 0x0, symName: __ZNSt3__123__libcpp_numeric_limitsIlLb1EE3maxB7v160006Ev, symObjAddr: 0x3914, symBinAddr: 0x100006674, symSize: 0x8 }
  - { offsetInCU: 0xD71E, offset: 0xD71E, size: 0x8, addend: 0x0, symName: __ZNSt12length_errorC1B7v160006EPKc, symObjAddr: 0x3980, symBinAddr: 0x1000066E0, symSize: 0x34 }
  - { offsetInCU: 0xD756, offset: 0xD756, size: 0x8, addend: 0x0, symName: __ZNSt12length_errorC2B7v160006EPKc, symObjAddr: 0x39B4, symBinAddr: 0x100006714, symSize: 0x4C }
  - { offsetInCU: 0xD78E, offset: 0xD78E, size: 0x8, addend: 0x0, symName: __ZNSt3__114__split_bufferI8PositionRNS_9allocatorIS1_EEEC2EmmS4_, symObjAddr: 0x3A54, symBinAddr: 0x1000067B4, symSize: 0xD4 }
  - { offsetInCU: 0xD802, offset: 0xD802, size: 0x8, addend: 0x0, symName: __ZNSt3__117__compressed_pairIP8PositionRNS_9allocatorIS1_EEEC1B7v160006IDnS5_EEOT_OT0_, symObjAddr: 0x3B28, symBinAddr: 0x100006888, symSize: 0x3C }
  - { offsetInCU: 0xD85A, offset: 0xD85A, size: 0x8, addend: 0x0, symName: __ZNSt3__114__split_bufferI8PositionRNS_9allocatorIS1_EEE7__allocB7v160006Ev, symObjAddr: 0x3BA4, symBinAddr: 0x100006904, symSize: 0x28 }
  - { offsetInCU: 0xD880, offset: 0xD880, size: 0x8, addend: 0x0, symName: __ZNSt3__114__split_bufferI8PositionRNS_9allocatorIS1_EEE9__end_capB7v160006Ev, symObjAddr: 0x3BCC, symBinAddr: 0x10000692C, symSize: 0x28 }
  - { offsetInCU: 0xD8A6, offset: 0xD8A6, size: 0x8, addend: 0x0, symName: __ZNSt3__117__compressed_pairIP8PositionRNS_9allocatorIS1_EEEC2B7v160006IDnS5_EEOT_OT0_, symObjAddr: 0x3BF4, symBinAddr: 0x100006954, symSize: 0x48 }
  - { offsetInCU: 0xD8FE, offset: 0xD8FE, size: 0x8, addend: 0x0, symName: __ZNSt3__122__compressed_pair_elemIRNS_9allocatorI8PositionEELi1ELb0EEC2B7v160006IS4_vEEOT_, symObjAddr: 0x3C3C, symBinAddr: 0x10000699C, symSize: 0x20 }
  - { offsetInCU: 0xD940, offset: 0xD940, size: 0x8, addend: 0x0, symName: __ZNSt3__19allocatorI8PositionE8allocateB7v160006Em, symObjAddr: 0x3C5C, symBinAddr: 0x1000069BC, symSize: 0x84 }
  - { offsetInCU: 0xD974, offset: 0xD974, size: 0x8, addend: 0x0, symName: __ZNSt3__117__compressed_pairIP8PositionRNS_9allocatorIS1_EEE6secondB7v160006Ev, symObjAddr: 0x3D60, symBinAddr: 0x100006AC0, symSize: 0x28 }
  - { offsetInCU: 0xD99A, offset: 0xD99A, size: 0x8, addend: 0x0, symName: __ZNSt3__122__compressed_pair_elemIRNS_9allocatorI8PositionEELi1ELb0EE5__getB7v160006Ev, symObjAddr: 0x3D88, symBinAddr: 0x100006AE8, symSize: 0x18 }
  - { offsetInCU: 0xD9C0, offset: 0xD9C0, size: 0x8, addend: 0x0, symName: __ZNSt3__117__compressed_pairIP8PositionRNS_9allocatorIS1_EEE5firstB7v160006Ev, symObjAddr: 0x3DA0, symBinAddr: 0x100006B00, symSize: 0x24 }
  - { offsetInCU: 0xD9E6, offset: 0xD9E6, size: 0x8, addend: 0x0, symName: __ZNSt3__116reverse_iteratorIP8PositionEC1B7v160006ES2_, symObjAddr: 0x3EAC, symBinAddr: 0x100006C0C, symSize: 0x34 }
  - { offsetInCU: 0xDA1E, offset: 0xDA1E, size: 0x8, addend: 0x0, symName: __ZNKSt3__116reverse_iteratorIP8PositionE4baseB7v160006Ev, symObjAddr: 0x3EE0, symBinAddr: 0x100006C40, symSize: 0x18 }
  - { offsetInCU: 0xDA44, offset: 0xDA44, size: 0x8, addend: 0x0, symName: __ZNKSt3__16vectorI8PositionNS_9allocatorIS1_EEE14__annotate_newB7v160006Em, symObjAddr: 0x3F34, symBinAddr: 0x100006C94, symSize: 0xAC }
  - { offsetInCU: 0xDA79, offset: 0xDA79, size: 0x8, addend: 0x0, symName: __ZNKSt3__116reverse_iteratorIP8PositionEdeB7v160006Ev, symObjAddr: 0x4088, symBinAddr: 0x100006DE8, symSize: 0x28 }
  - { offsetInCU: 0xDAAD, offset: 0xDAAD, size: 0x8, addend: 0x0, symName: __ZNSt3__116reverse_iteratorIP8PositionEppB7v160006Ev, symObjAddr: 0x40B0, symBinAddr: 0x100006E10, symSize: 0x20 }
  - { offsetInCU: 0xDAD8, offset: 0xDAD8, size: 0x8, addend: 0x0, symName: __ZNSt3__119__to_address_helperINS_16reverse_iteratorIP8PositionEEvE6__callB7v160006ERKS4_, symObjAddr: 0x4148, symBinAddr: 0x100006EA8, symSize: 0x4C }
  - { offsetInCU: 0xDAFB, offset: 0xDAFB, size: 0x8, addend: 0x0, symName: __ZNKSt3__116reverse_iteratorIP8PositionEptB7v160006Ev, symObjAddr: 0x4194, symBinAddr: 0x100006EF4, symSize: 0x24 }
  - { offsetInCU: 0xDB44, offset: 0xDB44, size: 0x8, addend: 0x0, symName: __ZNKSt3__111__move_loopINS_17_ClassicAlgPolicyEEclB7v160006INS_16reverse_iteratorIP8PositionEES7_S7_EENS_4pairIT_T1_EES9_T0_SA_, symObjAddr: 0x4448, symBinAddr: 0x1000071A8, symSize: 0xA8 }
  - { offsetInCU: 0xDBB4, offset: 0xDBB4, size: 0x8, addend: 0x0, symName: __ZNSt3__18_IterOpsINS_17_ClassicAlgPolicyEE11__iter_moveB7v160006IRNS_16reverse_iteratorIP8PositionEEEENS_9enable_ifIXsr12is_referenceIDTdeclsr3stdE7declvalIRT_EEEEE5valueEDTclsr3stdE4movedeclsr3stdE7declvalISB_EEEEE4typeEOSA_, symObjAddr: 0x4650, symBinAddr: 0x1000073B0, symSize: 0x28 }
  - { offsetInCU: 0xDBE0, offset: 0xDBE0, size: 0x8, addend: 0x0, symName: __ZNSt3__18_IterOpsINS_17_ClassicAlgPolicyEE25__validate_iter_referenceB7v160006IRNS_16reverse_iteratorIP8PositionEEEEvv, symObjAddr: 0x4678, symBinAddr: 0x1000073D8, symSize: 0x4 }
  - { offsetInCU: 0xDBFE, offset: 0xDBFE, size: 0x8, addend: 0x0, symName: __ZNSt3__118__unwrap_iter_implINS_16reverse_iteratorIP8PositionEELb0EE8__unwrapB7v160006ES4_, symObjAddr: 0x467C, symBinAddr: 0x1000073DC, symSize: 0x24 }
  - { offsetInCU: 0xDC21, offset: 0xDC21, size: 0x8, addend: 0x0, symName: __ZNSt3__14pairINS_16reverse_iteratorIP8PositionEES4_EC1B7v160006ERKS4_S7_, symObjAddr: 0x46A0, symBinAddr: 0x100007400, symSize: 0x3C }
  - { offsetInCU: 0xDC67, offset: 0xDC67, size: 0x8, addend: 0x0, symName: __ZNSt3__14pairINS_16reverse_iteratorIP8PositionEES4_EC2B7v160006ERKS4_S7_, symObjAddr: 0x46DC, symBinAddr: 0x10000743C, symSize: 0x34 }
  - { offsetInCU: 0xDCAD, offset: 0xDCAD, size: 0x8, addend: 0x0, symName: __ZNSt3__118__unwrap_iter_implINS_16reverse_iteratorIP8PositionEELb0EE8__rewrapB7v160006ES4_S4_, symObjAddr: 0x4710, symBinAddr: 0x100007470, symSize: 0x2C }
  - { offsetInCU: 0xDCDB, offset: 0xDCDB, size: 0x8, addend: 0x0, symName: __ZNSt3__116reverse_iteratorIP8PositionEC2B7v160006ES2_, symObjAddr: 0x473C, symBinAddr: 0x10000749C, symSize: 0x28 }
  - { offsetInCU: 0xDD13, offset: 0xDD13, size: 0x8, addend: 0x0, symName: __ZNSt3__114__split_bufferI8PositionRNS_9allocatorIS1_EEED2Ev, symObjAddr: 0x4764, symBinAddr: 0x1000074C4, symSize: 0x80 }
  - { offsetInCU: 0xDD3F, offset: 0xDD3F, size: 0x8, addend: 0x0, symName: __ZNSt3__114__split_bufferI8PositionRNS_9allocatorIS1_EEE5clearB7v160006Ev, symObjAddr: 0x47E4, symBinAddr: 0x100007544, symSize: 0x28 }
  - { offsetInCU: 0xDD65, offset: 0xDD65, size: 0x8, addend: 0x0, symName: __ZNKSt3__114__split_bufferI8PositionRNS_9allocatorIS1_EEE8capacityB7v160006Ev, symObjAddr: 0x480C, symBinAddr: 0x10000756C, symSize: 0x40 }
  - { offsetInCU: 0xDD8B, offset: 0xDD8B, size: 0x8, addend: 0x0, symName: __ZNSt3__114__split_bufferI8PositionRNS_9allocatorIS1_EEE17__destruct_at_endB7v160006EPS1_, symObjAddr: 0x484C, symBinAddr: 0x1000075AC, symSize: 0x2C }
  - { offsetInCU: 0xDDBF, offset: 0xDDBF, size: 0x8, addend: 0x0, symName: __ZNSt3__114__split_bufferI8PositionRNS_9allocatorIS1_EEE17__destruct_at_endB7v160006EPS1_NS_17integral_constantIbLb0EEE, symObjAddr: 0x4878, symBinAddr: 0x1000075D8, symSize: 0x94 }
  - { offsetInCU: 0xDE00, offset: 0xDE00, size: 0x8, addend: 0x0, symName: __ZNKSt3__114__split_bufferI8PositionRNS_9allocatorIS1_EEE9__end_capB7v160006Ev, symObjAddr: 0x490C, symBinAddr: 0x10000766C, symSize: 0x28 }
  - { offsetInCU: 0xDE26, offset: 0xDE26, size: 0x8, addend: 0x0, symName: __ZNKSt3__117__compressed_pairIP8PositionRNS_9allocatorIS1_EEE5firstB7v160006Ev, symObjAddr: 0x4934, symBinAddr: 0x100007694, symSize: 0x24 }
...
